; Function Attrs: nounwind uwtable
define dso_local i64 @multirange_out(ptr noundef readonly captures(none) %0) local_unnamed_addr #0 {
  %2 = alloca %struct.StringInfoData, align 8
  %3 = getelementptr inbounds nuw i8, ptr %0, i64 32
  %4 = load i64, ptr %3, align 8
  %5 = inttoptr i64 %4 to ptr
  %6 = tail call ptr @pg_detoast_datum(ptr noundef %5) #11
  %7 = getelementptr inbounds nuw i8, ptr %6, i64 4
  %8 = load i32, ptr %7, align 4
  call void @llvm.lifetime.start.p0(i64 24, ptr nonnull %2) #11
  %9 = tail call fastcc ptr @get_multirange_io_data(ptr noundef %0, i32 noundef %8, i32 noundef 1)
  call void @initStringInfo(ptr noundef nonnull %2) #11
  call void @appendStringInfoChar(ptr noundef nonnull %2, i8 noundef signext 123) #11
  %10 = load ptr, ptr %9, align 8
  %11 = getelementptr inbounds nuw i8, ptr %10, i64 440
  %12 = load ptr, ptr %11, align 8
  %13 = getelementptr inbounds nuw i8, ptr %6, i64 8
  %14 = load i32, ptr %13, align 4
  %15 = icmp sgt i32 %14, 0
  br i1 %15, label %16, label %._crit_edge

16:                                               ; preds = %1
  %17 = zext nneg i32 %14 to i64
  %18 = shl nuw nsw i64 %17, 3
  %19 = call ptr @palloc(i64 noundef %18) #11
  br label %.lr.ph.i

.lr.ph.i:                                         ; preds = %16, %.lr.ph.i
  %indvars.iv.i = phi i64 [ %indvars.iv.next.i, %.lr.ph.i ], [ 0, %16 ]
  %20 = trunc nuw nsw i64 %indvars.iv.i to i32
  %21 = call ptr @multirange_get_range(ptr noundef readonly %12, ptr noundef %6, i32 noundef %20)
  %22 = getelementptr inbounds nuw ptr, ptr %19, i64 %indvars.iv.i
  store ptr %21, ptr %22, align 8
  %indvars.iv.next.i = add nuw nsw i64 %indvars.iv.i, 1
  %exitcond.not = icmp eq i64 %indvars.iv.next.i, %17
  br i1 %exitcond.not, label %.lr.ph, label %.lr.ph.i, !llvm.loop !11

.lr.ph:                                           ; preds = %.lr.ph.i
  %23 = getelementptr inbounds nuw i8, ptr %9, i64 8
  %wide.trip.count = zext nneg i32 %14 to i64
  br label %24

24:                                               ; preds = %.lr.ph, %26
  %indvars.iv = phi i64 [ 0, %.lr.ph ], [ %indvars.iv.next, %26 ]
  %.not = icmp eq i64 %indvars.iv, 0
  br i1 %.not, label %26, label %25

25:                                               ; preds = %24
  call void @appendStringInfoChar(ptr noundef nonnull %2, i8 noundef signext 44) #11
  br label %26

26:                                               ; preds = %25, %24
  %27 = getelementptr inbounds nuw ptr, ptr %19, i64 %indvars.iv
  %28 = load ptr, ptr %27, align 8
  %29 = ptrtoint ptr %28 to i64
  %30 = call ptr @OutputFunctionCall(ptr noundef nonnull %23, i64 noundef %29) #11
  call void @appendStringInfoString(ptr noundef nonnull %2, ptr noundef %30) #11
  %indvars.iv.next = add nuw nsw i64 %indvars.iv, 1
  %exitcond18.not = icmp eq i64 %indvars.iv.next, %wide.trip.count
  br i1 %exitcond18.not, label %._crit_edge, label %24, !llvm.loop !12

._crit_edge:                                      ; preds = %26, %1
  call void @appendStringInfoChar(ptr noundef nonnull %2, i8 noundef signext 125) #11
  %31 = load ptr, ptr %2, align 8
  %32 = ptrtoint ptr %31 to i64
  call void @llvm.lifetime.end.p0(i64 24, ptr nonnull %2) #11
  ret i64 %32
}